target datalayout = "e-m:e-p270:32:32-p271:32:32-p272:64:64-i64:64-i128:128-f80:128-n8:16:32:64-S128"
target triple = "x86_64-pc-linux-gnu"

%struct.reassembly_table_functions = type { ptr, ptr, ptr, ptr, ptr, ptr }
%struct.tcpcl_fragment_key_t = type { ptr, i64 }

@addresses_ports_reassembly_table_functions = external constant %struct.reassembly_table_functions, align 8

; Function Attrs: null_pointer_is_valid sspstrong uwtable
define internal i32 @fragment_key_equal(ptr noundef %0, ptr noundef %1) #0 {
  %3 = alloca ptr, align 8
  %4 = alloca ptr, align 8
  %5 = alloca ptr, align 8
  %6 = alloca ptr, align 8
  store ptr %0, ptr %3, align 8
  store ptr %1, ptr %4, align 8
  call void @llvm.lifetime.start.p0(i64 8, ptr %5) #11
  %7 = load ptr, ptr %3, align 8
  store ptr %7, ptr %5, align 8
  call void @llvm.lifetime.start.p0(i64 8, ptr %6) #11
  %8 = load ptr, ptr %4, align 8
  store ptr %8, ptr %6, align 8
  %9 = load ptr, ptr getelementptr inbounds nuw (%struct.reassembly_table_functions, ptr @addresses_ports_reassembly_table_functions, i32 0, i32 1), align 8
  %10 = load ptr, ptr %5, align 8
  %11 = getelementptr inbounds nuw %struct.tcpcl_fragment_key_t, ptr %10, i32 0, i32 0
  %12 = load ptr, ptr %11, align 8
  %13 = load ptr, ptr %6, align 8
  %14 = getelementptr inbounds nuw %struct.tcpcl_fragment_key_t, ptr %13, i32 0, i32 0
  %15 = load ptr, ptr %14, align 8
  %16 = call i32 %9(ptr noundef %12, ptr noundef %15)
  %17 = icmp ne i32 %16, 0
  br i1 %17, label %18, label %26

18:                                               ; preds = %2
  %19 = load ptr, ptr %5, align 8
  %20 = getelementptr inbounds nuw %struct.tcpcl_fragment_key_t, ptr %19, i32 0, i32 1
  %21 = load i64, ptr %20, align 8
  %22 = load ptr, ptr %6, align 8
  %23 = getelementptr inbounds nuw %struct.tcpcl_fragment_key_t, ptr %22, i32 0, i32 1
  %24 = load i64, ptr %23, align 8
  %25 = icmp eq i64 %21, %24
  br label %26

26:                                               ; preds = %18, %2
  %27 = phi i1 [ false, %2 ], [ %25, %18 ]
  %28 = zext i1 %27 to i32
  call void @llvm.lifetime.end.p0(i64 8, ptr %6) #11
  call void @llvm.lifetime.end.p0(i64 8, ptr %5) #11
  ret i32 %28
}