; Function Attrs: null_pointer_is_valid sspstrong uwtable
define internal range(i32 0, 2) i32 @fragment_key_equal(ptr noundef readonly captures(none) %0, ptr noundef readonly captures(none) %1) #0 {
  %3 = load ptr, ptr getelementptr inbounds nuw (i8, ptr @addresses_ports_reassembly_table_functions, i64 8), align 8
  %4 = load ptr, ptr %0, align 8
  %5 = load ptr, ptr %1, align 8
  %6 = tail call i32 %3(ptr noundef %4, ptr noundef %5)
  %.not = icmp eq i32 %6, 0
  br i1 %.not, label %14, label %7

7:                                                ; preds = %2
  %8 = getelementptr inbounds nuw i8, ptr %0, i64 8
  %9 = load i64, ptr %8, align 8
  %10 = getelementptr inbounds nuw i8, ptr %1, i64 8
  %11 = load i64, ptr %10, align 8
  %12 = icmp eq i64 %9, %11
  %13 = zext i1 %12 to i32
  br label %14

14:                                               ; preds = %7, %2
  %15 = phi i32 [ 0, %2 ], [ %13, %7 ]
  ret i32 %15
}